; ModuleID = '9/9.c'
source_filename = "9/9.c"
target datalayout = "e-m:e-p270:32:32-p271:32:32-p272:64:64-i64:64-f80:128-n8:16:32:64-S128"
target triple = "x86_64-pc-linux-gnu"

@.str = private unnamed_addr constant [3 x i8] c"%d\00", align 1
@.str.1 = private unnamed_addr constant [3 x i8] c"%s\00", align 1

; Function Attrs: noinline nounwind uwtable
define dso_local i32 @main() #0 {
  %1 = alloca i32, align 4
  %2 = alloca i32, align 4
  %3 = alloca i32, align 4
  %4 = alloca i32, align 4
  %5 = alloca [100 x i32], align 16
  %6 = alloca [100 x i32], align 16
  %7 = alloca i32, align 4
  %8 = alloca i32, align 4
  %9 = alloca i32, align 4
  %10 = alloca [100 x [10 x i8]], align 16
  %11 = alloca [100 x [10 x i8]], align 16
  %12 = alloca [10 x i8], align 1
  store i32 0, i32* %1, align 4
  store i32 0, i32* %7, align 4
  store i32 0, i32* %8, align 4
  %13 = call i32 (i8*, ...) @__isoc99_scanf(i8* getelementptr inbounds ([3 x i8], [3 x i8]* @.str, i64 0, i64 0), i32* %4)
  store i32 0, i32* %2, align 4
  br label %14

14:                                               ; preds = %51, %0
  %15 = load i32, i32* %2, align 4
  %16 = load i32, i32* %4, align 4
  %17 = icmp slt i32 %15, %16
  br i1 %17, label %18, label %54

18:                                               ; preds = %14
  %19 = getelementptr inbounds [10 x i8], [10 x i8]* %12, i64 0, i64 0
  %20 = call i32 (i8*, ...) @__isoc99_scanf(i8* getelementptr inbounds ([3 x i8], [3 x i8]* @.str.1, i64 0, i64 0), i8* %19)
  %21 = call i32 (i8*, ...) @__isoc99_scanf(i8* getelementptr inbounds ([3 x i8], [3 x i8]* @.str, i64 0, i64 0), i32* %9)
  %22 = load i32, i32* %9, align 4
  %23 = icmp sge i32 %22, 60
  br i1 %23, label %24, label %37

24:                                               ; preds = %18
  %25 = load i32, i32* %9, align 4
  %26 = load i32, i32* %7, align 4
  %27 = sext i32 %26 to i64
  %28 = getelementptr inbounds [100 x i32], [100 x i32]* %5, i64 0, i64 %27
  store i32 %25, i32* %28, align 4
  %29 = load i32, i32* %7, align 4
  %30 = sext i32 %29 to i64
  %31 = getelementptr inbounds [100 x [10 x i8]], [100 x [10 x i8]]* %10, i64 0, i64 %30
  %32 = getelementptr inbounds [10 x i8], [10 x i8]* %31, i64 0, i64 0
  %33 = getelementptr inbounds [10 x i8], [10 x i8]* %12, i64 0, i64 0
  %34 = call i8* @strcpy(i8* %32, i8* %33) #3
  %35 = load i32, i32* %7, align 4
  %36 = add nsw i32 %35, 1
  store i32 %36, i32* %7, align 4
  br label %50

37:                                               ; preds = %18
  %38 = load i32, i32* %9, align 4
  %39 = load i32, i32* %8, align 4
  %40 = sext i32 %39 to i64
  %41 = getelementptr inbounds [100 x i32], [100 x i32]* %6, i64 0, i64 %40
  store i32 %38, i32* %41, align 4
  %42 = load i32, i32* %8, align 4
  %43 = sext i32 %42 to i64
  %44 = getelementptr inbounds [100 x [10 x i8]], [100 x [10 x i8]]* %11, i64 0, i64 %43
  %45 = getelementptr inbounds [10 x i8], [10 x i8]* %44, i64 0, i64 0
  %46 = getelementptr inbounds [10 x i8], [10 x i8]* %12, i64 0, i64 0
  %47 = call i8* @strcpy(i8* %45, i8* %46) #3
  %48 = load i32, i32* %8, align 4
  %49 = add nsw i32 %48, 1
  store i32 %49, i32* %8, align 4
  br label %50

50:                                               ; preds = %37, %24
  br label %51

51:                                               ; preds = %50
  %52 = load i32, i32* %2, align 4
  %53 = add nsw i32 %52, 1
  store i32 %53, i32* %2, align 4
  br label %14

54:                                               ; preds = %14
  store i32 1, i32* %2, align 4
  br label %55

55:                                               ; preds = %123, %54
  %56 = load i32, i32* %2, align 4
  %57 = load i32, i32* %7, align 4
  %58 = icmp sle i32 %56, %57
  br i1 %58, label %59, label %126

59:                                               ; preds = %55
  store i32 0, i32* %3, align 4
  br label %60

60:                                               ; preds = %119, %59
  %61 = load i32, i32* %3, align 4
  %62 = load i32, i32* %7, align 4
  %63 = load i32, i32* %2, align 4
  %64 = sub nsw i32 %62, %63
  %65 = icmp slt i32 %61, %64
  br i1 %65, label %66, label %122

66:                                               ; preds = %60
  %67 = load i32, i32* %3, align 4
  %68 = sext i32 %67 to i64
  %69 = getelementptr inbounds [100 x i32], [100 x i32]* %5, i64 0, i64 %68
  %70 = load i32, i32* %69, align 4
  %71 = load i32, i32* %3, align 4
  %72 = add nsw i32 %71, 1
  %73 = sext i32 %72 to i64
  %74 = getelementptr inbounds [100 x i32], [100 x i32]* %5, i64 0, i64 %73
  %75 = load i32, i32* %74, align 4
  %76 = icmp slt i32 %70, %75
  br i1 %76, label %77, label %118

77:                                               ; preds = %66
  %78 = load i32, i32* %3, align 4
  %79 = sext i32 %78 to i64
  %80 = getelementptr inbounds [100 x i32], [100 x i32]* %5, i64 0, i64 %79
  %81 = load i32, i32* %80, align 4
  store i32 %81, i32* %9, align 4
  %82 = load i32, i32* %3, align 4
  %83 = add nsw i32 %82, 1
  %84 = sext i32 %83 to i64
  %85 = getelementptr inbounds [100 x i32], [100 x i32]* %5, i64 0, i64 %84
  %86 = load i32, i32* %85, align 4
  %87 = load i32, i32* %3, align 4
  %88 = sext i32 %87 to i64
  %89 = getelementptr inbounds [100 x i32], [100 x i32]* %5, i64 0, i64 %88
  store i32 %86, i32* %89, align 4
  %90 = load i32, i32* %9, align 4
  %91 = load i32, i32* %3, align 4
  %92 = add nsw i32 %91, 1
  %93 = sext i32 %92 to i64
  %94 = getelementptr inbounds [100 x i32], [100 x i32]* %5, i64 0, i64 %93
  store i32 %90, i32* %94, align 4
  %95 = getelementptr inbounds [10 x i8], [10 x i8]* %12, i64 0, i64 0
  %96 = load i32, i32* %3, align 4
  %97 = sext i32 %96 to i64
  %98 = getelementptr inbounds [100 x [10 x i8]], [100 x [10 x i8]]* %10, i64 0, i64 %97
  %99 = getelementptr inbounds [10 x i8], [10 x i8]* %98, i64 0, i64 0
  %100 = call i8* @strcpy(i8* %95, i8* %99) #3
  %101 = load i32, i32* %3, align 4
  %102 = sext i32 %101 to i64
  %103 = getelementptr inbounds [100 x [10 x i8]], [100 x [10 x i8]]* %10, i64 0, i64 %102
  %104 = getelementptr inbounds [10 x i8], [10 x i8]* %103, i64 0, i64 0
  %105 = load i32, i32* %3, align 4
  %106 = add nsw i32 %105, 1
  %107 = sext i32 %106 to i64
  %108 = getelementptr inbounds [100 x [10 x i8]], [100 x [10 x i8]]* %10, i64 0, i64 %107
  %109 = getelementptr inbounds [10 x i8], [10 x i8]* %108, i64 0, i64 0
  %110 = call i8* @strcpy(i8* %104, i8* %109) #3
  %111 = load i32, i32* %3, align 4
  %112 = add nsw i32 %111, 1
  %113 = sext i32 %112 to i64
  %114 = getelementptr inbounds [100 x [10 x i8]], [100 x [10 x i8]]* %10, i64 0, i64 %113
  %115 = getelementptr inbounds [10 x i8], [10 x i8]* %114, i64 0, i64 0
  %116 = getelementptr inbounds [10 x i8], [10 x i8]* %12, i64 0, i64 0
  %117 = call i8* @strcpy(i8* %115, i8* %116) #3
  br label %118

118:                                              ; preds = %77, %66
  br label %119

119:                                              ; preds = %118
  %120 = load i32, i32* %3, align 4
  %121 = add nsw i32 %120, 1
  store i32 %121, i32* %3, align 4
  br label %60

122:                                              ; preds = %60
  br label %123

123:                                              ; preds = %122
  %124 = load i32, i32* %2, align 4
  %125 = add nsw i32 %124, 1
  store i32 %125, i32* %2, align 4
  br label %55

126:                                              ; preds = %55
  store i32 0, i32* %2, align 4
  br label %127

127:                                              ; preds = %137, %126
  %128 = load i32, i32* %2, align 4
  %129 = load i32, i32* %7, align 4
  %130 = icmp slt i32 %128, %129
  br i1 %130, label %131, label %140

131:                                              ; preds = %127
  %132 = load i32, i32* %2, align 4
  %133 = sext i32 %132 to i64
  %134 = getelementptr inbounds [100 x [10 x i8]], [100 x [10 x i8]]* %10, i64 0, i64 %133
  %135 = getelementptr inbounds [10 x i8], [10 x i8]* %134, i64 0, i64 0
  %136 = call i32 @puts(i8* %135)
  br label %137

137:                                              ; preds = %131
  %138 = load i32, i32* %2, align 4
  %139 = add nsw i32 %138, 1
  store i32 %139, i32* %2, align 4
  br label %127

140:                                              ; preds = %127
  store i32 0, i32* %2, align 4
  br label %141

141:                                              ; preds = %151, %140
  %142 = load i32, i32* %2, align 4
  %143 = load i32, i32* %8, align 4
  %144 = icmp slt i32 %142, %143
  br i1 %144, label %145, label %154

145:                                              ; preds = %141
  %146 = load i32, i32* %2, align 4
  %147 = sext i32 %146 to i64
  %148 = getelementptr inbounds [100 x [10 x i8]], [100 x [10 x i8]]* %11, i64 0, i64 %147
  %149 = getelementptr inbounds [10 x i8], [10 x i8]* %148, i64 0, i64 0
  %150 = call i32 @puts(i8* %149)
  br label %151

151:                                              ; preds = %145
  %152 = load i32, i32* %2, align 4
  %153 = add nsw i32 %152, 1
  store i32 %153, i32* %2, align 4
  br label %141

154:                                              ; preds = %141
  ret i32 0
}

declare dso_local i32 @__isoc99_scanf(i8*, ...) #1

; Function Attrs: nounwind
declare dso_local i8* @strcpy(i8*, i8*) #2

declare dso_local i32 @puts(i8*) #1


!llvm.module.flags = !{!0}
!llvm.ident = !{!1}

!0 = !{i32 1, !"wchar_size", i32 4}
!1 = !{!"clang version 10.0.0-4ubuntu1 "}
